; Function Attrs: mustprogress nounwind uwtable
define dso_local void @_ZN4node20SigintWatchdogHelperD2Ev(ptr noundef nonnull align 8 dereferenceable(162) %this) unnamed_addr #3 align 2 {
entry:
  store i32 0, ptr %this, align 8
  %call = tail call noundef zeroext i1 @_ZN4node20SigintWatchdogHelper4StopEv(ptr noundef nonnull align 8 dereferenceable(162) %this)
  %has_running_thread_ = getelementptr inbounds i8, ptr %this, i64 160
  %0 = load i8, ptr %has_running_thread_, align 8
  %1 = and i8 %0, 1
  %cmp.not = icmp eq i8 %1, 0
  br i1 %cmp.not, label %do.end7, label %do.body5

do.body5:                                         ; preds = %entry
  tail call void @_ZN4node6AssertERKNS_13AssertionInfoE(ptr noundef nonnull align 8 dereferenceable(24) @_ZZN4node20SigintWatchdogHelperD1EvE4args) #15
  tail call void @abort() #16
  unreachable

do.end7:                                          ; preds = %entry
  %sem_ = getelementptr inbounds i8, ptr %this, i64 128
  tail call void @uv_sem_destroy(ptr noundef nonnull %sem_) #15
  %watchdogs_ = getelementptr inbounds i8, ptr %this, i64 88
  %2 = load ptr, ptr %watchdogs_, align 8
  %tobool.not.i.i.i = icmp eq ptr %2, null
  br i1 %tobool.not.i.i.i, label %_ZNSt6vectorIPN4node18SigintWatchdogBaseESaIS2_EED2Ev.exit, label %if.then.i.i.i

if.then.i.i.i:                                    ; preds = %do.end7
  tail call void @_ZdlPv(ptr noundef nonnull %2) #18
  br label %_ZNSt6vectorIPN4node18SigintWatchdogBaseESaIS2_EED2Ev.exit

_ZNSt6vectorIPN4node18SigintWatchdogBaseESaIS2_EED2Ev.exit: ; preds = %do.end7, %if.then.i.i.i
  %list_mutex_ = getelementptr inbounds i8, ptr %this, i64 48
  tail call void @uv_mutex_destroy(ptr noundef nonnull %list_mutex_) #15
  %mutex_ = getelementptr inbounds i8, ptr %this, i64 8
  tail call void @uv_mutex_destroy(ptr noundef nonnull %mutex_) #15
  ret void
}